; Function Attrs: nounwind uwtable
define internal fastcc void @dissect_flag(ptr noundef %0, ptr noundef %1) unnamed_addr #0 {
  %3 = load i32, ptr @hf_wai_flag, align 4
  %4 = tail call ptr @proto_tree_add_item(ptr noundef %1, i32 noundef %3, ptr noundef %0, i32 noundef 0, i32 noundef 1, i32 noundef 0) #3
  %5 = load i32, ptr @ett_wai_flags, align 4
  %6 = tail call ptr @proto_item_add_subtree(ptr noundef %4, i32 noundef %5) #3
  %7 = load i32, ptr @hf_wai_bk_rekeying_flag, align 4
  %8 = tail call ptr @proto_tree_add_item(ptr noundef %6, i32 noundef %7, ptr noundef %0, i32 noundef 0, i32 noundef 1, i32 noundef 0) #3
  %9 = load i32, ptr @hf_wai_preauthentication_flag, align 4
  %10 = tail call ptr @proto_tree_add_item(ptr noundef %6, i32 noundef %9, ptr noundef %0, i32 noundef 0, i32 noundef 1, i32 noundef 0) #3
  %11 = load i32, ptr @hf_wai_certificate_flag, align 4
  %12 = tail call ptr @proto_tree_add_item(ptr noundef %6, i32 noundef %11, ptr noundef %0, i32 noundef 0, i32 noundef 1, i32 noundef 0) #3
  %13 = load i32, ptr @hf_wai_optional_flag, align 4
  %14 = tail call ptr @proto_tree_add_item(ptr noundef %6, i32 noundef %13, ptr noundef %0, i32 noundef 0, i32 noundef 1, i32 noundef 0) #3
  %15 = load i32, ptr @hf_wai_usk_rekeying_flag, align 4
  %16 = tail call ptr @proto_tree_add_item(ptr noundef %6, i32 noundef %15, ptr noundef %0, i32 noundef 0, i32 noundef 1, i32 noundef 0) #3
  %17 = load i32, ptr @hf_wai_negotiation_flag, align 4
  %18 = tail call ptr @proto_tree_add_item(ptr noundef %6, i32 noundef %17, ptr noundef %0, i32 noundef 0, i32 noundef 1, i32 noundef 0) #3
  %19 = load i32, ptr @hf_wai_revoking_flag, align 4
  %20 = tail call ptr @proto_tree_add_item(ptr noundef %6, i32 noundef %19, ptr noundef %0, i32 noundef 0, i32 noundef 1, i32 noundef 0) #3
  %21 = load i32, ptr @hf_wai_reserved_flag, align 4
  %22 = tail call ptr @proto_tree_add_item(ptr noundef %6, i32 noundef %21, ptr noundef %0, i32 noundef 0, i32 noundef 1, i32 noundef 0) #3
  ret void
}